target datalayout = "e-m:e-p270:32:32-p271:32:32-p272:64:64-i64:64-i128:128-f80:128-n8:16:32:64-S128"
target triple = "x86_64-pc-linux-gnu"

%struct.stat = type { i64, i64, i64, i32, i32, i32, i32, i64, i64, i64, i64, %struct.timespec, %struct.timespec, %struct.timespec, [3 x i64] }
%struct.timespec = type { i64, i64 }
%struct.dirent = type { i64, i64, i16, i8, [256 x i8] }

@.str = private unnamed_addr constant [2 x i8] c".\00", align 1
@.str.1 = private unnamed_addr constant [3 x i8] c"..\00", align 1
@.str.2 = private unnamed_addr constant [60 x i8] c"cli_magic_scan_dir: Unable to allocate memory for filename\0A\00", align 1
@.str.3 = private unnamed_addr constant [6 x i8] c"%s/%s\00", align 1
@.str.4 = private unnamed_addr constant [46 x i8] c"cli_magic_scan_dir: Can't open directory %s.\0A\00", align 1

; Function Attrs: nounwind uwtable
define i32 @cli_magic_scan_desc(i32 noundef %0, ptr noundef %1, ptr noundef %2, ptr noundef %3, i32 noundef %4) #0 {
  %6 = alloca i32, align 4
  %7 = alloca ptr, align 8
  %8 = alloca ptr, align 8
  %9 = alloca ptr, align 8
  %10 = alloca i32, align 4
  store i32 %0, ptr %6, align 4
  store ptr %1, ptr %7, align 8
  store ptr %2, ptr %8, align 8
  store ptr %3, ptr %9, align 8
  store i32 %4, ptr %10, align 4
  %11 = load i32, ptr %6, align 4
  %12 = load ptr, ptr %7, align 8
  %13 = load ptr, ptr %8, align 8
  %14 = load ptr, ptr %9, align 8
  %15 = load i32, ptr %10, align 4
  %16 = call i32 @cli_magic_scan_desc_type(i32 noundef %11, ptr noundef %12, ptr noundef %13, i32 noundef 0, ptr noundef %14, i32 noundef %15)
  ret i32 %16
}

; Function Attrs: nounwind uwtable
define i32 @cli_magic_scan_file(ptr noundef %0, ptr noundef %1, ptr noundef %2, i32 noundef %3) #0 {
  %5 = alloca ptr, align 8
  %6 = alloca ptr, align 8
  %7 = alloca ptr, align 8
  %8 = alloca i32, align 4
  %9 = alloca i32, align 4
  %10 = alloca i32, align 4
  store ptr %0, ptr %5, align 8
  store ptr %1, ptr %6, align 8
  store ptr %2, ptr %7, align 8
  store i32 %3, ptr %8, align 4
  store i32 -1, ptr %9, align 4
  store i32 8, ptr %10, align 4
  %11 = load ptr, ptr %5, align 8
  %12 = call i32 (ptr, i32, ...) @open(ptr noundef %11, i32 noundef 0)
  store i32 %12, ptr %9, align 4
  %13 = load i32, ptr %9, align 4
  %14 = icmp slt i32 %13, 0
  br i1 %14, label %15, label %16

15:                                               ; preds = %4
  br label %23

16:                                               ; preds = %4
  %17 = load i32, ptr %9, align 4
  %18 = load ptr, ptr %5, align 8
  %19 = load ptr, ptr %6, align 8
  %20 = load ptr, ptr %7, align 8
  %21 = load i32, ptr %8, align 4
  %22 = call i32 @cli_magic_scan_desc(i32 noundef %17, ptr noundef %18, ptr noundef %19, ptr noundef %20, i32 noundef %21)
  store i32 %22, ptr %10, align 4
  br label %23

23:                                               ; preds = %16, %15
  %24 = load i32, ptr %9, align 4
  %25 = icmp sge i32 %24, 0
  br i1 %25, label %26, label %29

26:                                               ; preds = %23
  %27 = load i32, ptr %9, align 4
  %28 = call i32 @close(i32 noundef %27)
  br label %29

29:                                               ; preds = %26, %23
  %30 = load i32, ptr %10, align 4
  ret i32 %30
}

; Function Attrs: nounwind uwtable
define i32 @cli_magic_scan_dir(ptr noundef %0, ptr noundef %1, i32 noundef %2) #0 {
  %4 = alloca ptr, align 8
  %5 = alloca ptr, align 8
  %6 = alloca i32, align 4
  %7 = alloca i32, align 4
  %8 = alloca ptr, align 8
  %9 = alloca ptr, align 8
  %10 = alloca %struct.stat, align 8
  %11 = alloca ptr, align 8
  store ptr %0, ptr %4, align 8
  store ptr %1, ptr %5, align 8
  store i32 %2, ptr %6, align 4
  store i32 0, ptr %7, align 4
  store ptr null, ptr %8, align 8
  store ptr null, ptr %11, align 8
  %12 = load ptr, ptr %4, align 8
  %13 = call ptr @opendir(ptr noundef %12)
  store ptr %13, ptr %8, align 8
  %14 = icmp ne ptr %13, null
  br i1 %14, label %15, label %103

15:                                               ; preds = %3
  br label %16

16:                                               ; preds = %101, %15
  %17 = load ptr, ptr %8, align 8
  %18 = call ptr @readdir(ptr noundef %17)
  store ptr %18, ptr %9, align 8
  %19 = icmp ne ptr %18, null
  br i1 %19, label %20, label %102

20:                                               ; preds = %16
  %21 = load ptr, ptr %9, align 8
  %22 = getelementptr inbounds %struct.dirent, ptr %21, i32 0, i32 0
  %23 = load i64, ptr %22, align 8
  %24 = icmp ne i64 %23, 0
  br i1 %24, label %25, label %101

25:                                               ; preds = %20
  %26 = load ptr, ptr %9, align 8
  %27 = getelementptr inbounds %struct.dirent, ptr %26, i32 0, i32 4
  %28 = getelementptr inbounds [256 x i8], ptr %27, i64 0, i64 0
  %29 = call i32 @strcmp(ptr noundef %28, ptr noundef @.str) #9
  %30 = icmp ne i32 %29, 0
  br i1 %30, label %31, label %100

31:                                               ; preds = %25
  %32 = load ptr, ptr %9, align 8
  %33 = getelementptr inbounds %struct.dirent, ptr %32, i32 0, i32 4
  %34 = getelementptr inbounds [256 x i8], ptr %33, i64 0, i64 0
  %35 = call i32 @strcmp(ptr noundef %34, ptr noundef @.str.1) #9
  %36 = icmp ne i32 %35, 0
  br i1 %36, label %37, label %100

37:                                               ; preds = %31
  %38 = load ptr, ptr %4, align 8
  %39 = call i64 @strlen(ptr noundef %38) #9
  %40 = load ptr, ptr %9, align 8
  %41 = getelementptr inbounds %struct.dirent, ptr %40, i32 0, i32 4
  %42 = getelementptr inbounds [256 x i8], ptr %41, i64 0, i64 0
  %43 = call i64 @strlen(ptr noundef %42) #9
  %44 = add i64 %39, %43
  %45 = add i64 %44, 2
  %46 = call noalias ptr @malloc(i64 noundef %45) #10
  store ptr %46, ptr %11, align 8
  %47 = load ptr, ptr %11, align 8
  %48 = icmp ne ptr %47, null
  br i1 %48, label %50, label %49

49:                                               ; preds = %37
  call void (ptr, ...) @cli_dbgmsg(ptr noundef @.str.2)
  store i32 20, ptr %7, align 4
  br label %106

50:                                               ; preds = %37
  %51 = load ptr, ptr %11, align 8
  %52 = load ptr, ptr %4, align 8
  %53 = load ptr, ptr %9, align 8
  %54 = getelementptr inbounds %struct.dirent, ptr %53, i32 0, i32 4
  %55 = getelementptr inbounds [256 x i8], ptr %54, i64 0, i64 0
  %56 = call i32 (ptr, ptr, ...) @sprintf(ptr noundef %51, ptr noundef @.str.3, ptr noundef %52, ptr noundef %55) #11
  %57 = load ptr, ptr %11, align 8
  %58 = call i32 @lstat(ptr noundef %57, ptr noundef %10) #11
  %59 = icmp ne i32 %58, -1
  br i1 %59, label %60, label %98

60:                                               ; preds = %50
  %61 = getelementptr inbounds %struct.stat, ptr %10, i32 0, i32 3
  %62 = load i32, ptr %61, align 8
  %63 = and i32 %62, 61440
  %64 = icmp eq i32 %63, 16384
  br i1 %64, label %65, label %79

65:                                               ; preds = %60
  %66 = getelementptr inbounds %struct.stat, ptr %10, i32 0, i32 3
  %67 = load i32, ptr %66, align 8
  %68 = and i32 %67, 61440
  %69 = icmp eq i32 %68, 40960
  br i1 %69, label %79, label %70

70:                                               ; preds = %65
  %71 = load ptr, ptr %11, align 8
  %72 = load ptr, ptr %5, align 8
  %73 = load i32, ptr %6, align 4
  %74 = call i32 @cli_magic_scan_dir(ptr noundef %71, ptr noundef %72, i32 noundef %73)
  store i32 %74, ptr %7, align 4
  %75 = load i32, ptr %7, align 4
  %76 = icmp ne i32 0, %75
  br i1 %76, label %77, label %78

77:                                               ; preds = %70
  br label %106

78:                                               ; preds = %70
  br label %97

79:                                               ; preds = %65, %60
  %80 = getelementptr inbounds %struct.stat, ptr %10, i32 0, i32 3
  %81 = load i32, ptr %80, align 8
  %82 = and i32 %81, 61440
  %83 = icmp eq i32 %82, 32768
  br i1 %83, label %84, label %96

84:                                               ; preds = %79
  %85 = load ptr, ptr %11, align 8
  %86 = load ptr, ptr %5, align 8
  %87 = load ptr, ptr %9, align 8
  %88 = getelementptr inbounds %struct.dirent, ptr %87, i32 0, i32 4
  %89 = getelementptr inbounds [256 x i8], ptr %88, i64 0, i64 0
  %90 = load i32, ptr %6, align 4
  %91 = call i32 @cli_magic_scan_file(ptr noundef %85, ptr noundef %86, ptr noundef %89, i32 noundef %90)
  store i32 %91, ptr %7, align 4
  %92 = load i32, ptr %7, align 4
  %93 = icmp ne i32 0, %92
  br i1 %93, label %94, label %95

94:                                               ; preds = %84
  br label %106

95:                                               ; preds = %84
  br label %96

96:                                               ; preds = %95, %79
  br label %97

97:                                               ; preds = %96, %78
  br label %98

98:                                               ; preds = %97, %50
  %99 = load ptr, ptr %11, align 8
  call void @free(ptr noundef %99) #11
  store ptr null, ptr %11, align 8
  br label %100

100:                                              ; preds = %98, %31, %25
  br label %101

101:                                              ; preds = %100, %20
  br label %16

102:                                              ; preds = %16
  br label %105

103:                                              ; preds = %3
  %104 = load ptr, ptr %4, align 8
  call void (ptr, ...) @cli_dbgmsg(ptr noundef @.str.4, ptr noundef %104)
  store i32 8, ptr %7, align 4
  br label %106

105:                                              ; preds = %102
  br label %106

106:                                              ; preds = %105, %103, %94, %77, %49
  %107 = load ptr, ptr %8, align 8
  %108 = icmp ne ptr null, %107
  br i1 %108, label %109, label %112

109:                                              ; preds = %106
  %110 = load ptr, ptr %8, align 8
  %111 = call i32 @closedir(ptr noundef %110)
  br label %112

112:                                              ; preds = %109, %106
  %113 = load ptr, ptr %11, align 8
  %114 = icmp ne ptr null, %113
  br i1 %114, label %115, label %117

115:                                              ; preds = %112
  %116 = load ptr, ptr %11, align 8
  call void @free(ptr noundef %116) #11
  br label %117

117:                                              ; preds = %115, %112
  %118 = load i32, ptr %7, align 4
  ret i32 %118
}