; Function Attrs: nounwind uwtable
define i32 @cli_magic_scan_dir(ptr noundef %0, ptr noundef %1, i32 noundef %2) local_unnamed_addr #0 {
  %4 = alloca %struct.stat, align 8
  %5 = tail call ptr @opendir(ptr noundef %0)
  %.not = icmp eq ptr %5, null
  br i1 %.not, label %.thread59, label %.preheader

.preheader:                                       ; preds = %3
  %6 = tail call ptr @readdir(ptr noundef nonnull %5) #16
  %.not3876 = icmp eq ptr %6, null
  br i1 %.not3876, label %.loopexit, label %.lr.ph

.lr.ph:                                           ; preds = %.preheader
  %7 = getelementptr inbounds nuw i8, ptr %4, i64 24
  br label %8

8:                                                ; preds = %.lr.ph, %41
  %9 = phi ptr [ %6, %.lr.ph ], [ %42, %41 ]
  %10 = load i64, ptr %9, align 8
  %.not39 = icmp eq i64 %10, 0
  br i1 %.not39, label %41, label %sub_0

sub_0:                                            ; preds = %8
  %11 = getelementptr inbounds nuw i8, ptr %9, i64 19
  %12 = load i8, ptr %11, align 1
  %.not77 = icmp eq i8 %12, 46
  br i1 %.not77, label %.tail, label %.tail71.thread

.tail:                                            ; preds = %sub_0
  %13 = getelementptr inbounds nuw i8, ptr %9, i64 20
  %14 = load i8, ptr %13, align 1
  %15 = icmp eq i8 %14, 0
  br i1 %15, label %41, label %sub_173

sub_173:                                          ; preds = %.tail
  %16 = getelementptr inbounds nuw i8, ptr %9, i64 20
  %17 = load i8, ptr %16, align 1
  %.not79 = icmp eq i8 %17, 46
  br i1 %.not79, label %.tail71, label %.tail71.thread

.tail71:                                          ; preds = %sub_173
  %18 = getelementptr inbounds nuw i8, ptr %9, i64 21
  %19 = load i8, ptr %18, align 1
  %20 = icmp eq i8 %19, 0
  br i1 %20, label %41, label %.tail71.thread

.tail71.thread:                                   ; preds = %sub_0, %sub_173, %.tail71
  %21 = tail call i64 @strlen(ptr noundef nonnull dereferenceable(1) %0) #17
  %22 = tail call i64 @strlen(ptr noundef nonnull dereferenceable(1) %11) #17
  %23 = add i64 %21, 2
  %24 = add i64 %23, %22
  %25 = tail call noalias ptr @malloc(i64 noundef %24) #18
  %.not42 = icmp eq ptr %25, null
  br i1 %.not42, label %26, label %27

26:                                               ; preds = %.tail71.thread
  tail call void (ptr, ...) @cli_dbgmsg(ptr noundef nonnull @.str.2) #16
  br label %.loopexit

27:                                               ; preds = %.tail71.thread
  %28 = tail call i32 (ptr, ptr, ...) @sprintf(ptr noundef nonnull dereferenceable(1) %25, ptr noundef nonnull dereferenceable(1) @.str.3, ptr noundef nonnull %0, ptr noundef nonnull %11) #16
  %29 = call i32 @lstat(ptr noundef nonnull %25, ptr noundef nonnull %4) #16
  %.not43 = icmp eq i32 %29, -1
  br i1 %.not43, label %40, label %30

30:                                               ; preds = %27
  %31 = load i32, ptr %7, align 8
  %32 = trunc i32 %31 to i16
  %trunc = and i16 %32, -4096
  switch i16 %trunc, label %40 [
    i16 16384, label %33
    i16 -32768, label %35
  ]

33:                                               ; preds = %30
  %34 = tail call i32 @cli_magic_scan_dir(ptr noundef nonnull %25, ptr noundef %1, i32 noundef %2)
  %.not45 = icmp eq i32 %34, 0
  br i1 %.not45, label %40, label %cli_magic_scan_file.exit.thread

35:                                               ; preds = %30
  %36 = tail call i32 (ptr, i32, ...) @open(ptr noundef nonnull %25, i32 noundef 0) #16
  %37 = icmp slt i32 %36, 0
  br i1 %37, label %cli_magic_scan_file.exit.thread, label %cli_magic_scan_file.exit

cli_magic_scan_file.exit:                         ; preds = %35
  %38 = tail call i32 @cli_magic_scan_desc_type(i32 noundef %36, ptr noundef nonnull %25, ptr noundef %1, i32 noundef 0, ptr noundef nonnull %11, i32 noundef %2)
  %39 = tail call i32 @close(i32 noundef %36) #16
  %.not44 = icmp eq i32 %38, 0
  br i1 %.not44, label %40, label %cli_magic_scan_file.exit.thread

40:                                               ; preds = %30, %33, %cli_magic_scan_file.exit, %27
  tail call void @free(ptr noundef nonnull %25) #16
  br label %41

41:                                               ; preds = %.tail, %.tail71, %40, %8
  %42 = tail call ptr @readdir(ptr noundef nonnull %5) #16
  %.not38 = icmp eq ptr %42, null
  br i1 %.not38, label %.loopexit, label %8

.thread59:                                        ; preds = %3
  tail call void (ptr, ...) @cli_dbgmsg(ptr noundef nonnull @.str.4, ptr noundef %0) #16
  br label %45

.loopexit:                                        ; preds = %41, %.preheader, %26
  %.229.ph = phi i32 [ 20, %26 ], [ 0, %.preheader ], [ 0, %41 ]
  %43 = tail call i32 @closedir(ptr noundef nonnull %5)
  br label %45

cli_magic_scan_file.exit.thread:                  ; preds = %35, %33, %cli_magic_scan_file.exit
  %.229.ph.ph = phi i32 [ %38, %cli_magic_scan_file.exit ], [ %34, %33 ], [ 8, %35 ]
  %44 = tail call i32 @closedir(ptr noundef nonnull %5)
  tail call void @free(ptr noundef nonnull %25) #16
  br label %45

45:                                               ; preds = %.loopexit, %.thread59, %cli_magic_scan_file.exit.thread
  %.2295663 = phi i32 [ 8, %.thread59 ], [ %.229.ph.ph, %cli_magic_scan_file.exit.thread ], [ %.229.ph, %.loopexit ]
  ret i32 %.2295663
}